target datalayout = "e-m:e-p270:32:32-p271:32:32-p272:64:64-i64:64-i128:128-f80:128-n8:16:32:64-S128"
target triple = "x86_64-pc-linux-gnu"

%"class.llvm::StringRef" = type { ptr, i64 }
%"class.clang::ento::CheckerNameRef" = type { %"class.llvm::StringRef" }
%"class.clang::ento::CheckerBase" = type { %"class.clang::ProgramPointTag", %"class.clang::ento::CheckerNameRef" }
%"class.clang::ProgramPointTag" = type { ptr, ptr }

; Function Attrs: mustprogress nounwind uwtable
define linkonce_odr hidden { ptr, i64 } @_ZNK5clang4ento14CheckerNameRef7getNameEv(ptr noundef nonnull align 8 dereferenceable(16) %0) #0 comdat align 2 {
  %2 = alloca %"class.llvm::StringRef", align 8
  %3 = alloca ptr, align 8
  store ptr %0, ptr %3, align 8
  %4 = load ptr, ptr %3, align 8
  %5 = getelementptr inbounds nuw %"class.clang::ento::CheckerNameRef", ptr %4, i32 0, i32 0
  call void @llvm.memcpy.p0.p0.i64(ptr align 8 %2, ptr align 8 %5, i64 16, i1 false)
  %6 = load { ptr, i64 }, ptr %2, align 8
  ret { ptr, i64 } %6
}

; Function Attrs: mustprogress nounwind uwtable
define dso_local { ptr, i64 } @_ZNK5clang4ento11CheckerBase14getCheckerNameEv(ptr noundef nonnull align 8 dereferenceable(32) %0) #0 align 2 {
  %2 = alloca %"class.clang::ento::CheckerNameRef", align 8
  %3 = alloca ptr, align 8
  store ptr %0, ptr %3, align 8
  %4 = load ptr, ptr %3, align 8
  %5 = getelementptr inbounds nuw %"class.clang::ento::CheckerBase", ptr %4, i32 0, i32 1
  call void @llvm.memcpy.p0.p0.i64(ptr align 8 %2, ptr align 8 %5, i64 16, i1 false)
  %6 = getelementptr inbounds nuw %"class.clang::ento::CheckerNameRef", ptr %2, i32 0, i32 0
  %7 = load { ptr, i64 }, ptr %6, align 8
  ret { ptr, i64 } %7
}

; Function Attrs: mustprogress nounwind uwtable
define dso_local { ptr, i64 } @_ZNK5clang4ento11CheckerBase17getTagDescriptionEv(ptr noundef nonnull align 8 dereferenceable(32) %0) unnamed_addr #0 align 2 {
  %2 = alloca %"class.llvm::StringRef", align 8
  %3 = alloca ptr, align 8
  %4 = alloca %"class.clang::ento::CheckerNameRef", align 8
  store ptr %0, ptr %3, align 8
  %5 = load ptr, ptr %3, align 8
  %6 = call { ptr, i64 } @_ZNK5clang4ento11CheckerBase14getCheckerNameEv(ptr noundef nonnull align 8 dereferenceable(32) %5)
  %7 = getelementptr inbounds nuw %"class.clang::ento::CheckerNameRef", ptr %4, i32 0, i32 0
  %8 = getelementptr inbounds nuw { ptr, i64 }, ptr %7, i32 0, i32 0
  %9 = extractvalue { ptr, i64 } %6, 0
  store ptr %9, ptr %8, align 8
  %10 = getelementptr inbounds nuw { ptr, i64 }, ptr %7, i32 0, i32 1
  %11 = extractvalue { ptr, i64 } %6, 1
  store i64 %11, ptr %10, align 8
  %12 = call { ptr, i64 } @_ZNK5clang4ento14CheckerNameRef7getNameEv(ptr noundef nonnull align 8 dereferenceable(16) %4)
  %13 = getelementptr inbounds nuw { ptr, i64 }, ptr %2, i32 0, i32 0
  %14 = extractvalue { ptr, i64 } %12, 0
  store ptr %14, ptr %13, align 8
  %15 = getelementptr inbounds nuw { ptr, i64 }, ptr %2, i32 0, i32 1
  %16 = extractvalue { ptr, i64 } %12, 1
  store i64 %16, ptr %15, align 8
  %17 = load { ptr, i64 }, ptr %2, align 8
  ret { ptr, i64 } %17
}