; Function Attrs: mustprogress nofree norecurse nosync nounwind willreturn memory(argmem: read) uwtable
define dso_local { ptr, i64 } @_ZNK5clang4ento11CheckerBase17getTagDescriptionEv(ptr nocapture noundef nonnull readonly align 8 dereferenceable(32) %0) unnamed_addr #0 align 2 {
  %2 = getelementptr inbounds nuw i8, ptr %0, i64 16
  %.sroa.0.0.copyload.i = load ptr, ptr %2, align 8
  %.sroa.2.0..sroa_idx.i = getelementptr inbounds i8, ptr %0, i64 24
  %.sroa.2.0.copyload.i = load i64, ptr %.sroa.2.0..sroa_idx.i, align 8
  %.fca.0.insert.i = insertvalue { ptr, i64 } poison, ptr %.sroa.0.0.copyload.i, 0
  %.fca.1.insert.i = insertvalue { ptr, i64 } %.fca.0.insert.i, i64 %.sroa.2.0.copyload.i, 1
  ret { ptr, i64 } %.fca.1.insert.i
}